target datalayout = "e-m:e-p270:32:32-p271:32:32-p272:64:64-i64:64-i128:128-f80:128-n8:16:32:64-S128"
target triple = "x86_64-pc-linux-gnu"

%"struct.clang::extractapi::SymbolReference" = type { %"class.llvm::StringRef", %"class.llvm::StringRef", %"class.llvm::StringRef", ptr }
%"class.llvm::StringRef" = type { ptr, i64 }
%"struct.clang::extractapi::APIRecord" = type { ptr, %"class.llvm::StringRef", %"class.llvm::StringRef", %"struct.clang::extractapi::SymbolReference", %"class.clang::PresumedLoc", %"struct.clang::AvailabilityInfo", %"class.clang::LinkageInfo", %"class.std::vector", %"class.clang::extractapi::DeclarationFragments", %"class.clang::extractapi::DeclarationFragments", i8, %"class.clang::extractapi::AccessControl", i32, i32, ptr }
%"class.clang::PresumedLoc" = type { ptr, %"class.clang::FileID", i32, i32, %"class.clang::SourceLocation" }
%"class.clang::FileID" = type { i32 }
%"class.clang::SourceLocation" = type { i32 }
%"struct.clang::AvailabilityInfo" = type <{ %"class.llvm::SmallString", %"class.llvm::VersionTuple", %"class.llvm::VersionTuple", %"class.llvm::VersionTuple", i8, i8, i8, [5 x i8] }>
%"class.llvm::SmallString" = type { %"class.llvm::SmallVector" }
%"class.llvm::SmallVector" = type { %"class.llvm::SmallVectorImpl", %"struct.llvm::SmallVectorStorage" }
%"class.llvm::SmallVectorImpl" = type { %"class.llvm::SmallVectorTemplateBase" }
%"class.llvm::SmallVectorTemplateBase" = type { %"class.llvm::SmallVectorTemplateCommon" }
%"class.llvm::SmallVectorTemplateCommon" = type { %"class.llvm::SmallVectorBase" }
%"class.llvm::SmallVectorBase" = type { ptr, i64, i64 }
%"struct.llvm::SmallVectorStorage" = type { [32 x i8] }
%"class.llvm::VersionTuple" = type { i64, i64 }
%"class.clang::LinkageInfo" = type { i8 }
%"class.std::vector" = type { %"struct.std::_Vector_base" }
%"struct.std::_Vector_base" = type { %"struct.std::_Vector_base<clang::RawComment::CommentLine, std::allocator<clang::RawComment::CommentLine>>::_Vector_impl" }
%"struct.std::_Vector_base<clang::RawComment::CommentLine, std::allocator<clang::RawComment::CommentLine>>::_Vector_impl" = type { %"struct.std::_Vector_base<clang::RawComment::CommentLine, std::allocator<clang::RawComment::CommentLine>>::_Vector_impl_data" }
%"struct.std::_Vector_base<clang::RawComment::CommentLine, std::allocator<clang::RawComment::CommentLine>>::_Vector_impl_data" = type { ptr, ptr, ptr }
%"class.clang::extractapi::DeclarationFragments" = type { %"class.std::vector.0" }
%"class.std::vector.0" = type { %"struct.std::_Vector_base.1" }
%"struct.std::_Vector_base.1" = type { %"struct.std::_Vector_base<clang::extractapi::DeclarationFragments::Fragment, std::allocator<clang::extractapi::DeclarationFragments::Fragment>>::_Vector_impl" }
%"struct.std::_Vector_base<clang::extractapi::DeclarationFragments::Fragment, std::allocator<clang::extractapi::DeclarationFragments::Fragment>>::_Vector_impl" = type { %"struct.std::_Vector_base<clang::extractapi::DeclarationFragments::Fragment, std::allocator<clang::extractapi::DeclarationFragments::Fragment>>::_Vector_impl_data" }
%"struct.std::_Vector_base<clang::extractapi::DeclarationFragments::Fragment, std::allocator<clang::extractapi::DeclarationFragments::Fragment>>::_Vector_impl_data" = type { ptr, ptr, ptr }
%"class.clang::extractapi::AccessControl" = type { %"class.std::__cxx11::basic_string" }
%"class.std::__cxx11::basic_string" = type { %"struct.std::__cxx11::basic_string<char>::_Alloc_hider", i64, %union.anon }
%"struct.std::__cxx11::basic_string<char>::_Alloc_hider" = type { ptr }
%union.anon = type { i64, [8 x i8] }
%"class.clang::extractapi::RecordContext" = type { i32, ptr, ptr }

; Function Attrs: mustprogress nounwind uwtable
define dso_local void @_ZN5clang10extractapi13RecordContext21removeFromRecordChainEPNS0_9APIRecordE(ptr noundef nonnull align 8 dereferenceable(24) %0, ptr noundef %1) #0 align 2 {
  %3 = alloca ptr, align 8
  %4 = alloca ptr, align 8
  %5 = alloca ptr, align 8
  %6 = alloca ptr, align 8
  store ptr %0, ptr %3, align 8
  store ptr %1, ptr %4, align 8
  %7 = load ptr, ptr %3, align 8
  store ptr null, ptr %5, align 8
  %8 = getelementptr inbounds nuw %"class.clang::extractapi::RecordContext", ptr %7, i32 0, i32 1
  %9 = load ptr, ptr %8, align 8
  store ptr %9, ptr %6, align 8
  br label %10

10:                                               ; preds = %16, %2
  %11 = load ptr, ptr %6, align 8
  %12 = load ptr, ptr %4, align 8
  %13 = icmp ne ptr %11, %12
  br i1 %13, label %14, label %20

14:                                               ; preds = %10
  %15 = load ptr, ptr %6, align 8
  store ptr %15, ptr %5, align 8
  br label %16

16:                                               ; preds = %14
  %17 = load ptr, ptr %6, align 8
  %18 = getelementptr inbounds nuw %"struct.clang::extractapi::APIRecord", ptr %17, i32 0, i32 14
  %19 = load ptr, ptr %18, align 8
  store ptr %19, ptr %6, align 8
  br label %10, !llvm.loop !6

20:                                               ; preds = %10
  %21 = load ptr, ptr %5, align 8
  %22 = icmp ne ptr %21, null
  br i1 %22, label %23, label %29

23:                                               ; preds = %20
  %24 = load ptr, ptr %4, align 8
  %25 = getelementptr inbounds nuw %"struct.clang::extractapi::APIRecord", ptr %24, i32 0, i32 14
  %26 = load ptr, ptr %25, align 8
  %27 = load ptr, ptr %5, align 8
  %28 = getelementptr inbounds nuw %"struct.clang::extractapi::APIRecord", ptr %27, i32 0, i32 14
  store ptr %26, ptr %28, align 8
  br label %34

29:                                               ; preds = %20
  %30 = load ptr, ptr %4, align 8
  %31 = getelementptr inbounds nuw %"struct.clang::extractapi::APIRecord", ptr %30, i32 0, i32 14
  %32 = load ptr, ptr %31, align 8
  %33 = getelementptr inbounds nuw %"class.clang::extractapi::RecordContext", ptr %7, i32 0, i32 1
  store ptr %32, ptr %33, align 8
  br label %34

34:                                               ; preds = %29, %23
  %35 = getelementptr inbounds nuw %"class.clang::extractapi::RecordContext", ptr %7, i32 0, i32 2
  %36 = load ptr, ptr %35, align 8
  %37 = load ptr, ptr %4, align 8
  %38 = icmp eq ptr %36, %37
  br i1 %38, label %39, label %42

39:                                               ; preds = %34
  %40 = load ptr, ptr %5, align 8
  %41 = getelementptr inbounds nuw %"class.clang::extractapi::RecordContext", ptr %7, i32 0, i32 2
  store ptr %40, ptr %41, align 8
  br label %42

42:                                               ; preds = %39, %34
  %43 = load ptr, ptr %4, align 8
  %44 = getelementptr inbounds nuw %"struct.clang::extractapi::APIRecord", ptr %43, i32 0, i32 14
  store ptr null, ptr %44, align 8
  ret void
}