; Function Attrs: mustprogress nofree norecurse nosync nounwind memory(readwrite, inaccessiblemem: none) uwtable
define dso_local void @_ZN5clang10extractapi13RecordContext21removeFromRecordChainEPNS0_9APIRecordE(ptr nocapture noundef nonnull align 8 dereferenceable(24) %0, ptr noundef %1) local_unnamed_addr #5 align 2 {
  %3 = getelementptr inbounds nuw i8, ptr %0, i64 8
  br label %4

4:                                                ; preds = %4, %2
  %.012 = phi ptr [ null, %2 ], [ %.0, %4 ]
  %.0.in = phi ptr [ %3, %2 ], [ %5, %4 ]
  %.0 = load ptr, ptr %.0.in, align 8
  %.not = icmp eq ptr %.0, %1
  %5 = getelementptr inbounds nuw i8, ptr %.0, i64 360
  br i1 %.not, label %6, label %4, !llvm.loop !6

6:                                                ; preds = %4
  %.not14 = icmp eq ptr %.012, null
  %7 = getelementptr inbounds nuw i8, ptr %1, i64 360
  %8 = load ptr, ptr %7, align 8
  %9 = getelementptr inbounds nuw i8, ptr %.012, i64 360
  %.sink = select i1 %.not14, ptr %3, ptr %9
  store ptr %8, ptr %.sink, align 8
  %10 = getelementptr inbounds nuw i8, ptr %0, i64 16
  %11 = load ptr, ptr %10, align 8
  %12 = icmp eq ptr %11, %1
  br i1 %12, label %13, label %14

13:                                               ; preds = %6
  store ptr %.012, ptr %10, align 8
  br label %14

14:                                               ; preds = %13, %6
  %15 = getelementptr inbounds nuw i8, ptr %1, i64 360
  store ptr null, ptr %15, align 8
  ret void
}